Certificate:
    Data:
        Version: 3 (0x2)
        Serial Number: 2 (0x2)
    Signature Algorithm: sha256WithRSAEncryption
        Issuer: C=AU, ST=Some-State, O=Internet Widgits Pty Ltd
        Validity
            Not Before: Dec  1 14:31:02 2016 GMT
            Not After : Dec  1 14:31:02 2017 GMT
        Subject: C=AU, ST=Some-State, O=Internet Widgits Pty Ltd, CN=junior
        Subject Public Key Info:
            Public Key Algorithm: rsaEncryption
                Public-Key: (4096 bit)
                Modulus:
                    00:e2:a3:5e:b5:9a:e1:aa:7b:32:1b:a3:83:d8:1c:
                    c1:09:66:9e:2b:25:59:95:bf:f3:e4:88:9e:4e:85:
                    fc:4b:8c:e5:2d:94:e3:49:52:57:c7:30:dd:1b:5f:
                    57:54:5d:44:f6:4c:aa:bd:81:41:27:24:97:61:d0:
                    7d:1b:30:80:40:07:fc:0b:54:6d:cf:ba:f0:4c:d2:
                    cb:fc:18:82:28:cf:76:24:7f:aa:5d:95:32:1f:c8:
                    b6:31:fe:a9:8f:d2:45:4e:8d:88:87:c4:dd:a1:32:
                    b7:e3:0c:b2:be:1f:74:24:d2:61:de:41:79:d5:28:
                    3c:4b:94:0d:7d:5c:08:6f:e8:cf:c5:62:b9:33:c3:
                    1c:64:4b:cf:e9:0a:e1:17:fe:66:d7:04:48:c7:ae:
                    69:ee:8d:dc:87:2a:c9:e5:e9:25:5a:e9:34:7f:27:
                    ec:ae:93:d6:b1:2b:df:17:39:5d:a5:76:0d:ce:bc:
                    e5:5e:cf:d5:8d:0c:f9:4a:f1:a1:d8:73:cb:6e:0a:
                    f8:7b:54:74:a3:2e:0f:0d:6a:96:f8:39:b1:4c:11:
                    34:d7:a5:c9:94:fe:50:18:7b:ee:66:b3:89:bb:ca:
                    be:71:ee:22:3e:1e:e8:44:3d:31:df:a1:9d:d4:3c:
                    32:95:f7:7b:da:21:a9:ee:50:31:88:30:47:df:82:
                    4c:97:fe:8c:4f:12:2d:74:0c:6a:81:15:98:06:78:
                    ef:01:27:34:86:54:fd:13:ae:35:f0:39:64:e5:44:
                    f3:30:d1:18:a1:57:6c:a2:12:6e:47:2b:b2:df:38:
                    33:21:e1:97:ad:8e:b6:b5:96:c4:91:fd:dd:33:ad:
                    6e:35:d8:bb:4e:c1:b2:ae:d7:8b:7f:cb:5e:52:f2:
                    53:0d:43:f4:3f:0b:0e:13:5f:8c:4c:8b:d1:54:93:
                    b4:1e:3c:7e:90:f2:60:6c:7a:1e:ca:42:77:d5:30:
                    76:81:0f:c2:50:93:8f:a4:a7:23:7e:73:c0:1d:dd:
                    be:77:be:b5:fd:a1:98:08:db:27:cf:cd:5e:5a:15:
                    11:7f:5f:d1:49:07:10:77:ca:ce:4a:aa:c4:89:f9:
                    54:c2:d6:7b:29:80:52:2b:a3:11:7e:9c:96:16:6e:
                    a2:88:be:9f:26:ea:8e:f1:a9:e8:b2:c0:59:26:24:
                    b9:3e:1a:54:ef:e7:42:15:36:59:eb:c7:1c:1f:1b:
                    a4:87:a8:b9:66:d6:fe:a2:56:6a:1d:2c:28:3d:50:
                    2e:f5:c4:b2:96:97:9b:07:47:4c:b4:2f:4e:e6:1b:
                    2d:72:f9:77:7b:75:a0:6a:8d:46:a5:65:d3:da:93:
                    2e:64:6f:23:1c:05:af:d5:fd:ab:1b:c0:4f:c9:1c:
                    40:13:29
                Exponent: 65537 (0x10001)
        X509v3 extensions:
            X509v3 Basic Constraints: 
                CA:FALSE
            Netscape Comment: 
                OpenSSL Generated Certificate
            X509v3 Subject Key Identifier: 
                81:B2:87:17:CB:5B:26:7D:54:1D:71:55:85:25:E2:4E:78:35:B4:BF
            X509v3 Authority Key Identifier: 
                keyid:A2:35:11:B3:C9:81:26:D8:12:EB:0B:0E:B2:29:1D:D6:20:53:3D:1A

    Signature Algorithm: sha256WithRSAEncryption
         20:40:9e:05:ea:66:02:7b:64:43:e4:4e:1d:f5:e4:19:af:a1:
         eb:e5:e1:de:db:96:fc:68:8b:25:16:06:4e:37:51:34:29:03:
         df:bf:37:62:13:d2:3c:78:9c:cf:09:e2:db:eb:d1:8b:3a:42:
         1e:76:50:df:84:c2:f9:13:d5:1b:27:0b:da:db:37:51:1f:87:
         e8:a5:5a:67:bf:cb:a1:9e:37:e3:2a:56:da:08:5c:90:28:e8:
         ca:c3:70:c9:bd:d1:e9:31:da:37:12:41:64:9b:67:fe:82:af:
         87:63:59:2b:30:58:d1:17:6c:f1:59:aa:5a:0d:d9:90:fc:0b:
         0e:dd:13:22:72:02:c0:83:8c:c9:86:84:e8:13:81:71:12:8f:
         04:b3:6f:c2:3f:6f:e2:ba:4f:39:4f:e3:5c:8e:fb:ca:16:d4:
         7f:3a:63:c7:82:c1:fc:8e:f9:ad:39:ba:c6:eb:1c:48:8d:61:
         c2:c6:9c:50:0a:a0:aa:66:9c:6b:5c:4e:f4:a2:1f:d1:4b:69:
         66:79:24:28:b5:37:57:db:bb:0a:10:60:c1:47:b9:29:46:70:
         f8:af:e4:90:0f:e6:3d:89:b0:de:08:64:38:6b:5c:12:d9:18:
         99:46:26:ab:53:80:ff:dd:78:a7:6b:9e:e3:9b:c3:74:57:7b:
         9a:3c:e2:a8:55:f6:8e:67:08:c4:e5:0f:3a:d3:dd:cd:81:33:
         d9:a5:e2:df:b4:78:8f:a1:8c:b4:1a:96:2f:09:81:be:2a:0b:
         8f:15:be:15:45:fa:47:ba:a8:27:7e:aa:64:79:2a:c8:68:7c:
         cb:4b:37:b6:00:a0:b0:b2:89:4e:30:cf:f9:58:14:23:1d:f6:
         a8:99:b8:06:b3:b1:f5:b6:54:b1:8b:ee:15:e5:cd:ac:25:bb:
         6b:ef:f6:6e:d7:81:db:b0:eb:83:4f:c2:e0:01:58:db:e4:d1:
         b3:a3:f9:d9:9b:6a:5c:13:83:6a:81:ac:74:3b:87:74:d7:ae:
         fc:9a:92:aa:3b:fe:6f:3d:c6:78:be:31:ca:b8:0e:24:65:0d:
         22:ce:e7:ef:4c:8a:cc:58:d2:68:f1:9f:95:1f:65:7e:14:70:
         d4:a5:75:4f:77:dd:2a:c2:79:aa:b0:b7:a6:3f:ab:f9:74:f3:
         ec:03:5a:3a:70:9e:87:0f:3b:94:96:d3:3f:19:a3:e7:ce:94:
         be:f2:b1:27:01:bb:f6:d7:be:06:c1:fa:97:e4:73:6f:3a:b2:
         85:35:03:bd:ad:4c:35:e2:54:07:07:fe:56:03:74:20:83:dc:
         78:c0:44:09:f2:bb:2a:1a:96:fa:ab:24:98:56:92:c8:64:42:
         d0:ad:10:d4:3d:79:a8:5a
-----BEGIN CERTIFICATE-----
MIIFkTCCA3mgAwIBAgIBAjANBgkqhkiG9w0BAQsFADBFMQswCQYDVQQGEwJBVTET
MBEGA1UECAwKU29tZS1TdGF0ZTEhMB8GA1UECgwYSW50ZXJuZXQgV2lkZ2l0cyBQ
dHkgTHRkMB4XDTE2MTIwMTE0MzEwMloXDTE3MTIwMTE0MzEwMlowVjELMAkGA1UE
BhMCQVUxEzARBgNVBAgMClNvbWUtU3RhdGUxITAfBgNVBAoMGEludGVybmV0IFdp
ZGdpdHMgUHR5IEx0ZDEPMA0GA1UEAwwGanVuaW9yMIICIjANBgkqhkiG9w0BAQEF
AAOCAg8AMIICCgKCAgEA4qNetZrhqnsyG6OD2BzBCWaeKyVZlb/z5IieToX8S4zl
LZTjSVJXxzDdG19XVF1E9kyqvYFBJySXYdB9GzCAQAf8C1Rtz7rwTNLL/BiCKM92
JH+qXZUyH8i2Mf6pj9JFTo2Ih8TdoTK34wyyvh90JNJh3kF51Sg8S5QNfVwIb+jP
xWK5M8McZEvP6QrhF/5m1wRIx65p7o3chyrJ5eklWuk0fyfsrpPWsSvfFzldpXYN
zrzlXs/VjQz5SvGh2HPLbgr4e1R0oy4PDWqW+DmxTBE016XJlP5QGHvuZrOJu8q+
ce4iPh7oRD0x36Gd1Dwylfd72iGp7lAxiDBH34JMl/6MTxItdAxqgRWYBnjvASc0
hlT9E6418Dlk5UTzMNEYoVdsohJuRyuy3zgzIeGXrY62tZbEkf3dM61uNdi7TsGy
rteLf8teUvJTDUP0PwsOE1+MTIvRVJO0Hjx+kPJgbHoeykJ31TB2gQ/CUJOPpKcj
fnPAHd2+d761/aGYCNsnz81eWhURf1/RSQcQd8rOSqrEiflUwtZ7KYBSK6MRfpyW
Fm6iiL6fJuqO8anossBZJiS5PhpU7+dCFTZZ68ccHxukh6i5Ztb+olZqHSwoPVAu
9cSylpebB0dMtC9O5hstcvl3e3Wgao1GpWXT2pMuZG8jHAWv1f2rG8BPyRxAEykC
AwEAAaN7MHkwCQYDVR0TBAIwADAsBglghkgBhvhCAQ0EHxYdT3BlblNTTCBHZW5l
cmF0ZWQgQ2VydGlmaWNhdGUwHQYDVR0OBBYEFIGyhxfLWyZ9VB1xVYUl4k54NbS/
MB8GA1UdIwQYMBaAFKI1EbPJgSbYEusLDrIpHdYgUz0aMA0GCSqGSIb3DQEBCwUA
A4ICAQAgQJ4F6mYCe2RD5E4d9eQZr6Hr5eHe25b8aIslFgZON1E0KQPfvzdiE9I8
eJzPCeLb69GLOkIedlDfhML5E9UbJwva2zdRH4fopVpnv8uhnjfjKlbaCFyQKOjK
w3DJvdHpMdo3EkFkm2f+gq+HY1krMFjRF2zxWapaDdmQ/AsO3RMicgLAg4zJhoTo
E4FxEo8Es2/CP2/iuk85T+NcjvvKFtR/OmPHgsH8jvmtObrG6xxIjWHCxpxQCqCq
ZpxrXE70oh/RS2lmeSQotTdX27sKEGDBR7kpRnD4r+SQD+Y9ibDeCGQ4a1wS2RiZ
RiarU4D/3Xina57jm8N0V3uaPOKoVfaOZwjE5Q86093NgTPZpeLftHiPoYy0GpYv
CYG+KguPFb4VRfpHuqgnfqpkeSrIaHzLSze2AKCwsolOMM/5WBQjHfaombgGs7H1
tlSxi+4V5c2sJbtr7/Zu14HbsOuDT8LgAVjb5NGzo/nZm2pcE4Nqgax0O4d01678
mpKqO/5vPcZ4vjHKuA4kZQ0izufvTIrMWNJo8Z+VH2V+FHDUpXVPd90qwnmqsLem
P6v5dPPsA1o6cJ6HDzuUltM/GaPnzpS+8rEnAbv2174GwfqX5HNvOrKFNQO9rUw1
4lQHB/5WA3Qgg9x4wEQJ8rsqGpb6qySYVpLIZELQrRDUPXmoWg==
-----END CERTIFICATE-----
