Certificate:
    Data:
        Version: 3 (0x2)
        Serial Number: 0 (0x0)
    Signature Algorithm: sha256WithRSAEncryption
        Issuer: C=AU, ST=Some-State, O=Internet Widgits Pty Ltd
        Validity
            Not Before: Dec  1 13:23:45 2016 GMT
            Not After : Dec  1 13:23:45 2017 GMT
        Subject: C=AU, ST=Some-State, O=Internet Widgits Pty Ltd, CN=pitikey
        Subject Public Key Info:
            Public Key Algorithm: rsaEncryption
                Public-Key: (4096 bit)
                Modulus:
                    00:c9:b6:f8:98:90:2e:83:4e:2c:fb:dc:d2:c8:e5:
                    db:6a:af:3c:61:63:85:3a:6e:d3:b1:a0:2e:1f:4e:
                    b4:03:b5:c2:77:50:14:84:85:d7:fa:56:92:d7:60:
                    0c:76:65:c6:a4:ac:cc:11:39:8f:d4:8d:f9:77:0c:
                    aa:20:a4:d1:75:1f:70:58:65:0e:ec:1a:67:c2:de:
                    b7:3b:71:2c:7b:a4:07:41:56:8d:3c:7c:42:bc:9f:
                    80:fe:6a:c4:ac:ec:ed:f6:60:73:d4:8f:3a:16:6c:
                    f3:6d:61:97:3c:17:38:ad:39:53:10:6f:8b:a6:1b:
                    39:08:9f:b1:f6:16:24:ad:6b:d3:c6:b7:34:88:61:
                    7a:41:72:b1:a3:5c:18:2e:4a:bf:66:fb:a2:df:14:
                    99:f1:1a:21:ea:fe:ec:16:99:6a:3c:d3:5e:48:9d:
                    17:58:a3:6b:f2:3f:69:c1:1e:27:44:29:29:a0:4f:
                    93:9a:bb:92:72:e4:8d:fa:ab:67:68:42:32:8b:13:
                    58:6f:57:99:39:5f:ff:0d:3b:e9:e8:a5:fc:6f:0e:
                    4d:1f:68:a2:43:a8:91:31:f2:94:95:8d:6d:73:f0:
                    ac:66:ed:16:2a:fb:0b:a1:4c:7a:44:af:0e:b6:f2:
                    3f:37:94:65:9f:42:79:e8:03:14:8e:6d:bd:83:1c:
                    37:a2:62:f1:b2:a7:7f:e0:e7:80:b6:9c:03:bf:1f:
                    57:5b:57:6b:a3:65:61:b5:c8:9e:da:cb:e0:49:2d:
                    8d:a4:2c:54:51:b3:5d:0c:d3:8b:ba:60:e2:5f:7f:
                    23:a6:e2:d4:24:c9:6b:06:c5:dd:58:70:48:4d:8a:
                    4a:7c:54:69:ee:06:da:d1:63:ed:8b:e7:fb:9d:95:
                    f9:2a:6a:f4:bc:9e:8e:97:59:22:94:bf:22:1d:b2:
                    30:77:36:e5:3a:0c:1b:3e:82:c4:9e:e5:ec:b4:4f:
                    80:f8:0e:5d:06:e3:87:d9:6c:73:0a:87:d7:ea:f4:
                    cc:c0:1a:b2:ce:1f:2e:04:45:af:8b:a7:06:f5:32:
                    d5:48:86:ad:fa:e4:50:aa:8c:72:ab:80:97:10:96:
                    48:07:a7:9f:13:77:2d:77:15:34:43:9f:23:f1:17:
                    0f:7c:8f:af:cd:e2:52:07:11:8b:00:9e:fa:76:c7:
                    7d:c2:d6:68:0c:c4:0a:7b:b7:98:18:66:a3:6c:10:
                    bc:28:3d:0e:cd:f8:82:88:11:2e:77:1c:67:a0:e4:
                    eb:93:94:f0:83:53:61:72:4f:a4:55:b4:36:45:a3:
                    2c:33:8b:23:7a:13:f4:69:c2:51:9f:5c:53:03:74:
                    ff:ac:1e:d0:3f:67:43:6c:db:cc:c5:ce:4b:f9:e5:
                    f6:54:31
                Exponent: 65537 (0x10001)
        X509v3 extensions:
            X509v3 Basic Constraints: 
                CA:FALSE
            Netscape Comment: 
                OpenSSL Generated Certificate
            X509v3 Subject Key Identifier: 
                40:9E:27:73:CC:18:9F:D9:D8:BF:C0:57:68:A6:87:9D:49:C3:03:7D
            X509v3 Authority Key Identifier: 
                keyid:A2:35:11:B3:C9:81:26:D8:12:EB:0B:0E:B2:29:1D:D6:20:53:3D:1A

    Signature Algorithm: sha256WithRSAEncryption
         1d:7f:3a:4e:67:b9:2d:b9:89:73:d1:0f:5f:f2:19:f9:dc:08:
         06:54:3b:f6:cf:47:24:48:db:1f:3c:c0:1a:96:72:5d:9f:b5:
         71:1b:3b:2f:32:69:f6:eb:07:c5:ba:8c:e6:85:0b:cb:19:b6:
         78:15:cd:aa:8a:dd:03:e0:75:b0:1a:7d:9a:5f:57:60:c7:fe:
         1a:50:fc:ed:bb:2c:41:c9:da:70:6e:68:82:1a:63:79:f3:6c:
         4b:51:ee:20:53:14:c4:1e:91:47:ba:0e:4c:65:75:f9:43:a8:
         59:8d:11:07:c8:c3:9e:f1:4b:22:3d:b0:c3:03:13:4c:af:6c:
         ab:4e:e9:32:02:8e:e7:84:42:b6:ca:f7:da:6a:7b:50:32:49:
         df:bf:a2:78:60:06:89:81:20:ac:25:80:4c:c4:69:a1:1b:7e:
         45:a5:21:45:ce:e0:87:65:20:b8:a6:00:5f:d5:c1:23:72:85:
         e3:6f:1d:0c:2c:40:e6:b6:c2:cd:37:99:fb:4e:79:20:21:f6:
         c5:95:7f:86:5b:c1:86:e6:dc:df:c5:d1:5b:83:2c:5e:38:57:
         4c:5c:30:52:a9:e5:f3:b3:ce:36:a6:08:71:ba:cf:0a:4b:5f:
         a5:d6:66:f0:b8:ed:c3:a1:5a:81:05:c0:21:f9:60:88:7a:13:
         1b:4f:d4:b5:ca:e9:48:0b:b5:c4:26:3f:78:e3:f5:e1:25:21:
         35:33:2a:ab:83:17:4f:6b:a0:27:76:13:67:aa:83:4d:21:da:
         80:22:89:b2:99:df:e0:6e:7b:98:e5:4d:bd:d0:09:6e:5f:a0:
         5b:f6:b0:08:12:b9:28:2f:70:7b:81:22:09:76:3b:2b:ab:ee:
         41:2e:4a:c9:28:04:01:32:28:eb:10:84:c8:4d:3e:b1:e5:5d:
         63:56:30:b2:a4:5f:95:0e:e0:65:c7:b8:68:ba:33:64:46:ce:
         e8:e0:7d:6d:3d:d2:c2:30:ea:91:8a:03:f8:a6:d9:b1:84:38:
         df:b2:ce:c5:90:f0:b3:57:eb:d8:a0:9e:ff:12:c2:d9:a0:e2:
         d8:59:23:75:c2:05:19:95:29:95:a1:8d:8a:9f:90:47:c2:86:
         92:e7:62:87:7b:5a:36:56:34:dc:83:71:c8:53:ea:ed:a8:25:
         27:d7:17:06:51:ae:df:c6:8b:5f:da:a4:70:8e:06:76:05:60:
         59:9e:e6:51:92:24:0e:82:5b:43:9d:9a:49:a3:93:55:75:55:
         ca:a3:c2:28:b6:10:0e:23:e8:f6:2d:fe:b9:d2:02:b6:3d:f1:
         ce:d1:b8:44:3e:0e:2c:32:51:78:db:cd:7e:23:d4:f6:76:a3:
         40:be:23:c6:91:2f:2a:55
-----BEGIN CERTIFICATE-----
MIIFkjCCA3qgAwIBAgIBADANBgkqhkiG9w0BAQsFADBFMQswCQYDVQQGEwJBVTET
MBEGA1UECAwKU29tZS1TdGF0ZTEhMB8GA1UECgwYSW50ZXJuZXQgV2lkZ2l0cyBQ
dHkgTHRkMB4XDTE2MTIwMTEzMjM0NVoXDTE3MTIwMTEzMjM0NVowVzELMAkGA1UE
BhMCQVUxEzARBgNVBAgMClNvbWUtU3RhdGUxITAfBgNVBAoMGEludGVybmV0IFdp
ZGdpdHMgUHR5IEx0ZDEQMA4GA1UEAwwHcGl0aWtleTCCAiIwDQYJKoZIhvcNAQEB
BQADggIPADCCAgoCggIBAMm2+JiQLoNOLPvc0sjl22qvPGFjhTpu07GgLh9OtAO1
wndQFISF1/pWktdgDHZlxqSszBE5j9SN+XcMqiCk0XUfcFhlDuwaZ8LetztxLHuk
B0FWjTx8QryfgP5qxKzs7fZgc9SPOhZs821hlzwXOK05UxBvi6YbOQifsfYWJK1r
08a3NIhhekFysaNcGC5Kv2b7ot8UmfEaIer+7BaZajzTXkidF1ija/I/acEeJ0Qp
KaBPk5q7knLkjfqrZ2hCMosTWG9XmTlf/w076eil/G8OTR9ookOokTHylJWNbXPw
rGbtFir7C6FMekSvDrbyPzeUZZ9CeegDFI5tvYMcN6Ji8bKnf+DngLacA78fV1tX
a6NlYbXIntrL4EktjaQsVFGzXQzTi7pg4l9/I6bi1CTJawbF3VhwSE2KSnxUae4G
2tFj7Yvn+52V+Spq9LyejpdZIpS/Ih2yMHc25ToMGz6CxJ7l7LRPgPgOXQbjh9ls
cwqH1+r0zMAass4fLgRFr4unBvUy1UiGrfrkUKqMcquAlxCWSAennxN3LXcVNEOf
I/EXD3yPr83iUgcRiwCe+nbHfcLWaAzECnu3mBhmo2wQvCg9Ds34gogRLnccZ6Dk
65OU8INTYXJPpFW0NkWjLDOLI3oT9GnCUZ9cUwN0/6we0D9nQ2zbzMXOS/nl9lQx
AgMBAAGjezB5MAkGA1UdEwQCMAAwLAYJYIZIAYb4QgENBB8WHU9wZW5TU0wgR2Vu
ZXJhdGVkIENlcnRpZmljYXRlMB0GA1UdDgQWBBRAnidzzBif2di/wFdopoedScMD
fTAfBgNVHSMEGDAWgBSiNRGzyYEm2BLrCw6yKR3WIFM9GjANBgkqhkiG9w0BAQsF
AAOCAgEAHX86Tme5LbmJc9EPX/IZ+dwIBlQ79s9HJEjbHzzAGpZyXZ+1cRs7LzJp
9usHxbqM5oULyxm2eBXNqordA+B1sBp9ml9XYMf+GlD87bssQcnacG5oghpjefNs
S1HuIFMUxB6RR7oOTGV1+UOoWY0RB8jDnvFLIj2wwwMTTK9sq07pMgKO54RCtsr3
2mp7UDJJ37+ieGAGiYEgrCWATMRpoRt+RaUhRc7gh2UguKYAX9XBI3KF428dDCxA
5rbCzTeZ+055ICH2xZV/hlvBhubc38XRW4MsXjhXTFwwUqnl87PONqYIcbrPCktf
pdZm8Ljtw6FagQXAIflgiHoTG0/UtcrpSAu1xCY/eOP14SUhNTMqq4MXT2ugJ3YT
Z6qDTSHagCKJspnf4G57mOVNvdAJbl+gW/awCBK5KC9we4EiCXY7K6vuQS5KySgE
ATIo6xCEyE0+seVdY1YwsqRflQ7gZce4aLozZEbO6OB9bT3SwjDqkYoD+KbZsYQ4
37LOxZDws1fr2KCe/xLC2aDi2FkjdcIFGZUplaGNip+QR8KGkudih3taNlY03INx
yFPq7aglJ9cXBlGu38aLX9qkcI4GdgVgWZ7mUZIkDoJbQ52aSaOTVXVVyqPCKLYQ
DiPo9i3+udICtj3xztG4RD4OLDJReNvNfiPU9najQL4jxpEvKlU=
-----END CERTIFICATE-----
