Certificate:
    Data:
        Version: 3 (0x2)
        Serial Number: 1 (0x1)
    Signature Algorithm: sha256WithRSAEncryption
        Issuer: C=AU, ST=Some-State, O=Internet Widgits Pty Ltd
        Validity
            Not Before: Dec  1 13:58:34 2016 GMT
            Not After : Dec  1 13:58:34 2017 GMT
        Subject: C=AU, ST=Some-State, O=Internet Widgits Pty Ltd, CN=keyser
        Subject Public Key Info:
            Public Key Algorithm: rsaEncryption
                Public-Key: (4096 bit)
                Modulus:
                    00:cf:27:74:bf:7e:23:5e:bb:03:25:67:d6:84:54:
                    d3:fd:27:8c:39:92:c1:ca:5e:c8:d8:b9:3a:9a:91:
                    4e:5f:28:6f:9d:09:69:e7:f8:15:5f:c4:1e:d9:e4:
                    31:52:8f:c6:3d:13:c9:24:6e:30:37:36:2b:11:d4:
                    48:db:11:4c:e8:2c:a1:7d:94:6b:24:47:ff:51:84:
                    2d:f0:b2:40:a5:20:f2:cb:77:ee:ef:d1:e3:99:48:
                    e5:db:d3:99:68:38:50:13:99:b5:0a:97:b3:bf:be:
                    d1:04:d6:e5:2d:73:23:16:cd:57:bd:c5:5b:27:10:
                    72:1b:54:3c:63:14:59:5e:a2:c1:29:f3:f0:b5:80:
                    ad:69:8a:a4:42:8e:6e:fa:ed:3a:78:e1:f4:d3:02:
                    2a:03:41:13:cd:e5:95:30:22:c7:fd:7e:fd:9c:66:
                    3c:6c:99:78:bc:d2:56:56:72:b6:8c:08:23:c5:eb:
                    0c:f9:60:43:6c:4d:bf:af:52:72:ec:f4:72:0e:de:
                    22:d3:f8:e2:ee:b9:2d:67:23:c6:89:e7:5c:c1:37:
                    ff:35:79:ed:ab:3b:12:37:74:c3:42:68:a2:1e:22:
                    e2:26:bc:aa:e2:c1:f8:8e:71:5f:00:db:74:30:46:
                    42:2d:71:5c:2e:86:d3:b2:d0:8c:2c:41:76:41:74:
                    fb:7c:7b:52:2d:34:9a:c2:ee:25:93:37:ae:0c:1a:
                    24:0b:b3:9c:4a:90:64:9e:a1:2b:d3:d7:a4:78:1a:
                    5d:4f:67:d5:c2:1d:fc:3b:90:ba:37:b1:0a:35:c8:
                    d0:58:6a:14:27:44:4f:de:d7:1c:33:95:43:73:01:
                    37:0e:a7:38:32:7d:8b:5b:3a:e3:fc:a3:42:d7:d7:
                    4b:24:9d:1b:62:31:d7:32:59:78:e8:6a:f7:ab:87:
                    93:f0:44:8a:ec:fa:84:f9:d4:4a:d5:97:b6:5c:2a:
                    df:29:d8:7d:80:f2:d2:e7:50:52:d4:86:82:05:8d:
                    07:cf:d8:1c:db:d4:88:5d:a0:c6:f2:03:41:7e:fa:
                    f3:9c:24:30:3b:db:87:6f:43:31:45:7e:8b:1b:3d:
                    06:ba:40:da:38:4d:92:c4:e0:59:0c:5d:d6:93:16:
                    af:fe:4d:20:c9:ca:06:3d:d6:ef:48:94:0f:41:aa:
                    45:2b:67:81:90:aa:40:eb:8c:b1:ef:eb:5d:94:16:
                    35:68:86:d8:d2:36:d3:8e:2e:b3:d5:c7:57:b9:ad:
                    46:d8:08:86:db:da:4a:ca:69:e1:68:3a:04:c0:b4:
                    b8:53:d5:0d:c5:cb:39:49:a0:4e:c5:0c:20:0e:46:
                    e8:e1:d9:d7:e8:fe:44:13:9d:34:be:3f:49:5d:c7:
                    11:7c:d1
                Exponent: 65537 (0x10001)
        X509v3 extensions:
            X509v3 Basic Constraints: 
                CA:FALSE
            Netscape Comment: 
                OpenSSL Generated Certificate
            X509v3 Subject Key Identifier: 
                3B:60:02:A9:B3:E5:DC:41:F4:C6:61:A9:84:26:D0:F3:3F:78:FC:75
            X509v3 Authority Key Identifier: 
                keyid:A2:35:11:B3:C9:81:26:D8:12:EB:0B:0E:B2:29:1D:D6:20:53:3D:1A

    Signature Algorithm: sha256WithRSAEncryption
         25:d2:32:a9:db:d5:9c:af:2d:61:ee:ee:a8:fe:b1:2e:d3:90:
         b5:2e:56:50:dd:35:cd:b8:c0:34:6b:47:43:9f:8b:f9:01:8c:
         6a:3e:49:fc:f1:b3:d4:52:cb:7c:74:41:63:67:39:0c:32:c5:
         4b:04:6d:10:6b:b7:59:79:2b:2d:e0:25:2a:47:37:1e:b0:9a:
         55:e6:0d:99:7c:09:76:6d:ca:6a:2e:a1:02:7f:8a:59:16:88:
         6f:e5:4c:71:42:c0:02:98:38:a4:81:bf:78:57:2b:7c:af:77:
         eb:74:3e:47:c8:ce:b4:68:7c:8d:5b:28:d0:5b:ab:be:7d:89:
         fc:ef:3f:13:1d:2d:44:c4:55:8b:b3:b8:00:ee:bc:f0:c9:d9:
         1f:02:9c:91:7f:94:47:5b:51:cc:eb:2d:8c:6c:aa:62:2d:58:
         0b:9c:6a:58:32:af:5e:ee:79:fc:3d:96:46:56:01:ef:dc:dd:
         1a:52:d0:94:ae:3d:5d:51:18:47:2f:4c:32:2d:88:3f:2d:be:
         20:63:f8:6a:da:df:49:ff:87:ff:d2:f2:fa:94:e3:bb:fe:b3:
         29:3f:fb:c1:98:7f:9d:f7:d3:40:18:4b:9c:10:5c:1d:29:9a:
         04:70:45:4e:89:1f:55:05:cc:58:ea:dd:82:65:9a:f4:e6:c3:
         ef:24:7c:b0:59:c8:5e:e4:5b:90:c4:4a:db:a5:e8:b7:d3:af:
         74:d0:5c:97:fb:19:d8:a0:2e:b4:fb:9e:19:de:8d:f6:6e:aa:
         ae:e7:1d:e2:41:cd:e1:0c:68:b0:c5:3e:93:8f:dc:bb:3f:74:
         56:7c:a8:3f:48:c7:03:c3:2f:7e:21:ba:87:b9:4d:99:ec:d2:
         f9:db:59:96:b6:ac:f7:79:f9:c4:c1:11:7b:7f:1e:4c:ca:21:
         62:eb:2c:34:5a:13:7a:0a:8f:68:82:3e:fb:c4:52:c2:0a:53:
         f0:46:0b:c0:72:82:71:62:c1:4a:2c:0e:7b:c0:43:7f:17:e0:
         4d:19:47:48:10:ca:52:7c:6a:48:75:ea:f4:5a:a1:f7:4e:9b:
         4e:c6:5f:25:7c:6d:f5:81:86:2a:dd:27:38:61:91:84:c5:1b:
         2f:23:d2:a4:1c:bf:79:fe:0f:42:84:15:43:22:7b:64:8a:91:
         a4:da:70:18:80:a6:a2:16:8e:a9:ed:ab:e4:e1:2d:6c:b2:d3:
         02:27:98:2d:c8:5d:65:48:12:0e:bc:e5:57:87:62:63:9f:c3:
         34:05:fe:15:33:14:0d:41:9d:99:d1:24:a2:50:bf:d3:8e:1d:
         d3:c7:b1:cf:ac:75:84:1d:3a:93:8c:aa:30:1d:e5:5b:30:46:
         bf:03:bf:d2:7f:ef:9f:af
-----BEGIN CERTIFICATE-----
MIIFkTCCA3mgAwIBAgIBATANBgkqhkiG9w0BAQsFADBFMQswCQYDVQQGEwJBVTET
MBEGA1UECAwKU29tZS1TdGF0ZTEhMB8GA1UECgwYSW50ZXJuZXQgV2lkZ2l0cyBQ
dHkgTHRkMB4XDTE2MTIwMTEzNTgzNFoXDTE3MTIwMTEzNTgzNFowVjELMAkGA1UE
BhMCQVUxEzARBgNVBAgMClNvbWUtU3RhdGUxITAfBgNVBAoMGEludGVybmV0IFdp
ZGdpdHMgUHR5IEx0ZDEPMA0GA1UEAwwGa2V5c2VyMIICIjANBgkqhkiG9w0BAQEF
AAOCAg8AMIICCgKCAgEAzyd0v34jXrsDJWfWhFTT/SeMOZLByl7I2Lk6mpFOXyhv
nQlp5/gVX8Qe2eQxUo/GPRPJJG4wNzYrEdRI2xFM6CyhfZRrJEf/UYQt8LJApSDy
y3fu79HjmUjl29OZaDhQE5m1Cpezv77RBNblLXMjFs1XvcVbJxByG1Q8YxRZXqLB
KfPwtYCtaYqkQo5u+u06eOH00wIqA0ETzeWVMCLH/X79nGY8bJl4vNJWVnK2jAgj
xesM+WBDbE2/r1Jy7PRyDt4i0/ji7rktZyPGiedcwTf/NXntqzsSN3TDQmiiHiLi
Jryq4sH4jnFfANt0MEZCLXFcLobTstCMLEF2QXT7fHtSLTSawu4lkzeuDBokC7Oc
SpBknqEr09ekeBpdT2fVwh38O5C6N7EKNcjQWGoUJ0RP3tccM5VDcwE3Dqc4Mn2L
Wzrj/KNC19dLJJ0bYjHXMll46Gr3q4eT8ESK7PqE+dRK1Ze2XCrfKdh9gPLS51BS
1IaCBY0Hz9gc29SIXaDG8gNBfvrznCQwO9uHb0MxRX6LGz0GukDaOE2SxOBZDF3W
kxav/k0gycoGPdbvSJQPQapFK2eBkKpA64yx7+tdlBY1aIbY0jbTji6z1cdXua1G
2AiG29pKymnhaDoEwLS4U9UNxcs5SaBOxQwgDkbo4dnX6P5EE500vj9JXccRfNEC
AwEAAaN7MHkwCQYDVR0TBAIwADAsBglghkgBhvhCAQ0EHxYdT3BlblNTTCBHZW5l
cmF0ZWQgQ2VydGlmaWNhdGUwHQYDVR0OBBYEFDtgAqmz5dxB9MZhqYQm0PM/ePx1
MB8GA1UdIwQYMBaAFKI1EbPJgSbYEusLDrIpHdYgUz0aMA0GCSqGSIb3DQEBCwUA
A4ICAQAl0jKp29Wcry1h7u6o/rEu05C1LlZQ3TXNuMA0a0dDn4v5AYxqPkn88bPU
Ust8dEFjZzkMMsVLBG0Qa7dZeSst4CUqRzcesJpV5g2ZfAl2bcpqLqECf4pZFohv
5UxxQsACmDikgb94Vyt8r3frdD5HyM60aHyNWyjQW6u+fYn87z8THS1ExFWLs7gA
7rzwydkfApyRf5RHW1HM6y2MbKpiLVgLnGpYMq9e7nn8PZZGVgHv3N0aUtCUrj1d
URhHL0wyLYg/Lb4gY/hq2t9J/4f/0vL6lOO7/rMpP/vBmH+d99NAGEucEFwdKZoE
cEVOiR9VBcxY6t2CZZr05sPvJHywWche5FuQxErbpei306900FyX+xnYoC60+54Z
3o32bqqu5x3iQc3hDGiwxT6Tj9y7P3RWfKg/SMcDwy9+IbqHuU2Z7NL521mWtqz3
efnEwRF7fx5MyiFi6yw0WhN6Co9ogj77xFLCClPwRgvAcoJxYsFKLA57wEN/F+BN
GUdIEMpSfGpIder0WqH3TptOxl8lfG31gYYq3Sc4YZGExRsvI9KkHL95/g9ChBVD
IntkipGk2nAYgKaiFo6p7avk4S1sstMCJ5gtyF1lSBIOvOVXh2Jjn8M0Bf4VMxQN
QZ2Z0SSiUL/Tjh3Tx7HPrHWEHTqTjKowHeVbMEa/A7/Sf++frw==
-----END CERTIFICATE-----
